target datalayout = "e-m:e-p270:32:32-p271:32:32-p272:64:64-i64:64-i128:128-f80:128-n8:16:32:64-S128"
target triple = "x86_64-pc-linux-gnu"

%struct.quic_conn_st = type { %struct.quic_obj_st, ptr, ptr, ptr, ptr, ptr, ptr, ptr, ptr, %union.bio_addr_st, %struct.quic_thread_assist_st, i64, i16, i32, i32, i64, i32, i64, i32 }
%struct.quic_obj_st = type { %struct.ssl_st, ptr, ptr, ptr, ptr, ptr, i64, i8 }
%struct.ssl_st = type { i32, ptr, ptr, ptr, %struct.CRYPTO_REF_COUNT, ptr, %struct.crypto_ex_data_st }
%struct.CRYPTO_REF_COUNT = type { i32 }
%struct.crypto_ex_data_st = type { ptr, ptr }
%union.bio_addr_st = type { %struct.sockaddr_in6, [84 x i8] }
%struct.sockaddr_in6 = type { i16, i16, i32, %struct.in6_addr, i32 }
%struct.in6_addr = type { %union.anon }
%union.anon = type { [4 x i32] }
%struct.quic_thread_assist_st = type { ptr, ptr, ptr, i32, i32 }
%struct.qctx_st = type { ptr, ptr, ptr, ptr, ptr, i32, i32, i32, i32 }

; Function Attrs: nounwind uwtable
define internal i32 @expect_quic_conn_only(ptr noundef %0, ptr noundef %1) #0 {
  %3 = alloca ptr, align 8
  %4 = alloca ptr, align 8
  store ptr %0, ptr %3, align 8, !tbaa !136
  store ptr %1, ptr %4, align 8, !tbaa !119
  %5 = load ptr, ptr %3, align 8, !tbaa !136
  %6 = load ptr, ptr %4, align 8, !tbaa !119
  %7 = call i32 @expect_quic_as(ptr noundef %5, ptr noundef %6, i32 noundef 1)
  ret i32 %7
}

; Function Attrs: nounwind uwtable
define i64 @ossl_quic_callback_ctrl(ptr noundef %0, i32 noundef %1, ptr noundef %2) #0 {
  %4 = alloca i64, align 8
  %5 = alloca ptr, align 8
  %6 = alloca i32, align 4
  %7 = alloca ptr, align 8
  %8 = alloca %struct.qctx_st, align 8
  %9 = alloca i32, align 4
  store ptr %0, ptr %5, align 8, !tbaa !136
  store i32 %1, ptr %6, align 4, !tbaa !122
  store ptr %2, ptr %7, align 8, !tbaa !167
  call void @llvm.lifetime.start.p0(i64 56, ptr %8) #10
  %10 = load ptr, ptr %5, align 8, !tbaa !136
  %11 = call i32 @expect_quic_conn_only(ptr noundef %10, ptr noundef %8)
  %12 = icmp ne i32 %11, 0
  br i1 %12, label %14, label %13

13:                                               ; preds = %3
  store i64 0, ptr %4, align 8
  store i32 1, ptr %9, align 4
  br label %41

14:                                               ; preds = %3
  %15 = load i32, ptr %6, align 4, !tbaa !122
  switch i32 %15, label %33 [
    i32 15, label %16
  ]

16:                                               ; preds = %14
  %17 = getelementptr inbounds nuw %struct.qctx_st, ptr %8, i32 0, i32 3
  %18 = load ptr, ptr %17, align 8, !tbaa !123
  %19 = getelementptr inbounds nuw %struct.quic_conn_st, ptr %18, i32 0, i32 6
  %20 = load ptr, ptr %19, align 8, !tbaa !106
  %21 = load ptr, ptr %7, align 8, !tbaa !167
  %22 = getelementptr inbounds nuw %struct.qctx_st, ptr %8, i32 0, i32 3
  %23 = load ptr, ptr %22, align 8, !tbaa !123
  %24 = getelementptr inbounds nuw %struct.quic_conn_st, ptr %23, i32 0, i32 0
  %25 = getelementptr inbounds nuw %struct.quic_obj_st, ptr %24, i32 0, i32 0
  call void @ossl_quic_channel_set_msg_callback(ptr noundef %20, ptr noundef %21, ptr noundef %25)
  %26 = getelementptr inbounds nuw %struct.qctx_st, ptr %8, i32 0, i32 3
  %27 = load ptr, ptr %26, align 8, !tbaa !123
  %28 = getelementptr inbounds nuw %struct.quic_conn_st, ptr %27, i32 0, i32 1
  %29 = load ptr, ptr %28, align 8, !tbaa !35
  %30 = load i32, ptr %6, align 4, !tbaa !122
  %31 = load ptr, ptr %7, align 8, !tbaa !167
  %32 = call i64 @ssl3_callback_ctrl(ptr noundef %29, i32 noundef %30, ptr noundef %31)
  store i64 %32, ptr %4, align 8
  store i32 1, ptr %9, align 4
  br label %41

33:                                               ; preds = %14
  %34 = getelementptr inbounds nuw %struct.qctx_st, ptr %8, i32 0, i32 3
  %35 = load ptr, ptr %34, align 8, !tbaa !123
  %36 = getelementptr inbounds nuw %struct.quic_conn_st, ptr %35, i32 0, i32 1
  %37 = load ptr, ptr %36, align 8, !tbaa !35
  %38 = load i32, ptr %6, align 4, !tbaa !122
  %39 = load ptr, ptr %7, align 8, !tbaa !167
  %40 = call i64 @ssl3_callback_ctrl(ptr noundef %37, i32 noundef %38, ptr noundef %39)
  store i64 %40, ptr %4, align 8
  store i32 1, ptr %9, align 4
  br label %41

41:                                               ; preds = %33, %16, %13
  call void @llvm.lifetime.end.p0(i64 56, ptr %8) #10
  %42 = load i64, ptr %4, align 8
  ret i64 %42
}