; Function Attrs: nounwind uwtable
define i64 @ossl_quic_callback_ctrl(ptr noundef %0, i32 noundef %1, ptr noundef %2) local_unnamed_addr #0 {
  %4 = alloca %struct.qctx_st, align 8
  call void @llvm.lifetime.start.p0(i64 56, ptr nonnull %4) #12
  %5 = call fastcc range(i32 0, 2) i32 @expect_quic_as(ptr noundef %0, ptr noundef nonnull %4, i32 noundef 1)
  %.not = icmp eq i32 %5, 0
  br i1 %.not, label %16, label %6

6:                                                ; preds = %3
  %cond = icmp eq i32 %1, 15
  %7 = getelementptr inbounds nuw i8, ptr %4, i64 24
  %8 = load ptr, ptr %7, align 8, !tbaa !134
  br i1 %cond, label %9, label %.sink.split

9:                                                ; preds = %6
  %10 = getelementptr inbounds nuw i8, ptr %8, i64 160
  %11 = load ptr, ptr %10, align 8, !tbaa !113
  call void @ossl_quic_channel_set_msg_callback(ptr noundef %11, ptr noundef %2, ptr noundef %8) #12
  %12 = load ptr, ptr %7, align 8, !tbaa !134
  br label %.sink.split

.sink.split:                                      ; preds = %6, %9
  %.sink = phi ptr [ %12, %9 ], [ %8, %6 ]
  %.sink8 = phi i32 [ 15, %9 ], [ %1, %6 ]
  %13 = getelementptr inbounds nuw i8, ptr %.sink, i64 120
  %14 = load ptr, ptr %13, align 8, !tbaa !30
  %15 = call i64 @ssl3_callback_ctrl(ptr noundef %14, i32 noundef %.sink8, ptr noundef %2) #12
  br label %16

16:                                               ; preds = %.sink.split, %3
  %.0 = phi i64 [ 0, %3 ], [ %15, %.sink.split ]
  call void @llvm.lifetime.end.p0(i64 56, ptr nonnull %4) #12
  ret i64 %.0
}